TN:
SF:/home/runner/work/ros2_uav_px4/ros2_uav_px4/src/ros2_uav_px4/include/ros2_uav_px4/executors/executor_arm.hpp
FN:44,_ZN8ros2_uav9executors11ExecutorArmC2ERN6rclcpp4NodeERN8px4_ros28ModeBaseE
FN:53,_ZN8ros2_uav9executors11ExecutorArm10onActivateEv
FN:64,_ZN8ros2_uav9executors11ExecutorArm12onDeactivateEN8px4_ros216ModeExecutorBase16DeactivateReasonE
FN:74,_ZN8ros2_uav9executors11ExecutorArm8runStateENS1_5StateE
FN:80,_ZZN8ros2_uav9executors11ExecutorArm8runStateENS1_5StateEENKUlN8px4_ros26ResultEE_clES4_
FN:90,_ZZN8ros2_uav9executors11ExecutorArm8runStateENS1_5StateEENKUlN8px4_ros26ResultEE0_clES4_
FNDA:0,_ZN8ros2_uav9executors11ExecutorArm10onActivateEv
FNDA:0,_ZN8ros2_uav9executors11ExecutorArm12onDeactivateEN8px4_ros216ModeExecutorBase16DeactivateReasonE
FNDA:0,_ZZN8ros2_uav9executors11ExecutorArm8runStateENS1_5StateEENKUlN8px4_ros26ResultEE0_clES4_
FNDA:0,_ZZN8ros2_uav9executors11ExecutorArm8runStateENS1_5StateEENKUlN8px4_ros26ResultEE_clES4_
FNDA:0,_ZN8ros2_uav9executors11ExecutorArm8runStateENS1_5StateE
FNDA:0,_ZN8ros2_uav9executors11ExecutorArmC2ERN6rclcpp4NodeERN8px4_ros28ModeBaseE
FNF:6
FNH:0
DA:44,0
DA:45,0
DA:46,0
DA:47,0
DA:48,0
DA:53,0
DA:55,0
DA:56,0
DA:57,0
DA:64,0
DA:66,0
DA:67,0
DA:74,0
DA:76,0
DA:77,0
DA:78,0
DA:79,0
DA:80,0
DA:82,0
DA:83,0
DA:85,0
DA:86,0
DA:87,0
DA:88,0
DA:89,0
DA:90,0
DA:91,0
DA:93,0
LF:28
LH:0
end_of_record
TN:
SF:/home/runner/work/ros2_uav_px4/ros2_uav_px4/src/ros2_uav_px4/include/ros2_uav_px4/executors/executor_take_off.hpp
FN:47,_ZN8ros2_uav9executors15ExecutorTakeOffC2ERN6rclcpp4NodeERN8px4_ros28ModeBaseE
FN:59,_ZN8ros2_uav9executors15ExecutorTakeOff10onActivateEv
FN:69,_ZN8ros2_uav9executors15ExecutorTakeOff12onDeactivateEN8px4_ros216ModeExecutorBase16DeactivateReasonE
FN:78,_ZN8ros2_uav9executors15ExecutorTakeOff8runStateENS1_5StateE
FN:84,_ZZN8ros2_uav9executors15ExecutorTakeOff8runStateENS1_5StateEENKUlN8px4_ros26ResultEE_clES4_
FN:97,_ZZN8ros2_uav9executors15ExecutorTakeOff8runStateENS1_5StateEENKUlN8px4_ros26ResultEE0_clES4_
FN:111,_ZZN8ros2_uav9executors15ExecutorTakeOff8runStateENS1_5StateEENKUlN8px4_ros26ResultEE1_clES4_
FNDA:0,_ZN8ros2_uav9executors15ExecutorTakeOff12onDeactivateEN8px4_ros216ModeExecutorBase16DeactivateReasonE
FNDA:0,_ZN8ros2_uav9executors15ExecutorTakeOff10onActivateEv
FNDA:0,_ZN8ros2_uav9executors15ExecutorTakeOffC2ERN6rclcpp4NodeERN8px4_ros28ModeBaseE
FNDA:0,_ZN8ros2_uav9executors15ExecutorTakeOff8runStateENS1_5StateE
FNDA:0,_ZZN8ros2_uav9executors15ExecutorTakeOff8runStateENS1_5StateEENKUlN8px4_ros26ResultEE0_clES4_
FNDA:0,_ZZN8ros2_uav9executors15ExecutorTakeOff8runStateENS1_5StateEENKUlN8px4_ros26ResultEE1_clES4_
FNDA:0,_ZZN8ros2_uav9executors15ExecutorTakeOff8runStateENS1_5StateEENKUlN8px4_ros26ResultEE_clES4_
FNF:7
FNH:0
DA:47,0
DA:48,0
DA:49,0
DA:50,0
DA:52,0
DA:53,0
DA:54,0
DA:59,0
DA:61,0
DA:62,0
DA:69,0
DA:71,0
DA:78,0
DA:80,0
DA:81,0
DA:82,0
DA:83,0
DA:84,0
DA:86,0
DA:87,0
DA:89,0
DA:90,0
DA:91,0
DA:92,0
DA:94,0
DA:95,0
DA:96,0
DA:97,0
DA:99,0
DA:100,0
DA:102,0
DA:105,0
DA:106,0
DA:108,0
DA:109,0
DA:110,0
DA:111,0
DA:112,0
DA:114,0
LF:39
LH:0
end_of_record
TN:
SF:/home/runner/work/ros2_uav_px4/ros2_uav_px4/src/ros2_uav_px4/include/ros2_uav_px4/mode_interface/mode_interface.hpp
FN:37,_ZN8ros2_uav5modes13ModeInterfaceC2ERKN8px4_ros28ModeBase8SettingsERN6rclcpp4NodeE
FNDA:0,_ZN8ros2_uav5modes13ModeInterfaceC2ERKN8px4_ros28ModeBase8SettingsERN6rclcpp4NodeE
FNF:1
FNH:0
DA:37,0
DA:38,0
DA:40,0
DA:42,0
LF:4
LH:0
end_of_record
TN:
SF:/home/runner/work/ros2_uav_px4/ros2_uav_px4/src/ros2_uav_px4/include/ros2_uav_px4/modes/attitude_thrust.hpp
FN:65,_ZN8ros2_uav5modes18AttitudeThrustModeIN7uav_cpp5modes11Se3PositionEE11setSetpointERKNS2_5types11PoseHeadingE
FN:72,_ZN8ros2_uav5modes18AttitudeThrustModeIN7uav_cpp5modes11Se3PositionEE11setTfBufferESt10shared_ptrIN7tf2_ros6BufferEE
FN:90,_ZN8ros2_uav5modes18AttitudeThrustModeIN7uav_cpp5modes11Se3PositionEE10onActivateEv
FN:90,_ZN8ros2_uav5modes18AttitudeThrustModeIN7uav_cpp5modes4SpinEE10onActivateEv
FN:95,_ZN8ros2_uav5modes18AttitudeThrustModeIN7uav_cpp5modes11Se3PositionEE12onDeactivateEv
FN:95,_ZN8ros2_uav5modes18AttitudeThrustModeIN7uav_cpp5modes4SpinEE12onDeactivateEv
FNDA:0,_ZN8ros2_uav5modes18AttitudeThrustModeIN7uav_cpp5modes11Se3PositionEE11setTfBufferESt10shared_ptrIN7tf2_ros6BufferEE
FNDA:0,_ZN8ros2_uav5modes18AttitudeThrustModeIN7uav_cpp5modes4SpinEE10onActivateEv
FNDA:0,_ZN8ros2_uav5modes18AttitudeThrustModeIN7uav_cpp5modes11Se3PositionEE12onDeactivateEv
FNDA:0,_ZN8ros2_uav5modes18AttitudeThrustModeIN7uav_cpp5modes11Se3PositionEE10onActivateEv
FNDA:0,_ZN8ros2_uav5modes18AttitudeThrustModeIN7uav_cpp5modes4SpinEE12onDeactivateEv
FNDA:0,_ZN8ros2_uav5modes18AttitudeThrustModeIN7uav_cpp5modes11Se3PositionEE11setSetpointERKNS2_5types11PoseHeadingE
FNF:6
FNH:0
DA:65,0
DA:72,0
DA:90,0
DA:95,0
LF:4
LH:0
end_of_record
TN:
SF:/home/runner/work/ros2_uav_px4/ros2_uav_px4/src/ros2_uav_px4/include/ros2_uav_px4/modes/attitude_thrust_impl.hpp
FN:26,_ZN8ros2_uav5modes18AttitudeThrustModeIN7uav_cpp5modes4SpinEEC2ERKN8px4_ros28ModeBase8SettingsERN6rclcpp4NodeE
FN:26,_ZN8ros2_uav5modes18AttitudeThrustModeIN7uav_cpp5modes11Se3PositionEEC2ERKN8px4_ros28ModeBase8SettingsERN6rclcpp4NodeE
FN:44,_ZN8ros2_uav5modes18AttitudeThrustModeIN7uav_cpp5modes4SpinEE14odometryUpdateEv
FN:44,_ZN8ros2_uav5modes18AttitudeThrustModeIN7uav_cpp5modes11Se3PositionEE14odometryUpdateEv
FN:58,_ZN8ros2_uav5modes18AttitudeThrustModeIN7uav_cpp5modes4SpinEE14updateSetpointEf
FN:58,_ZN8ros2_uav5modes18AttitudeThrustModeIN7uav_cpp5modes11Se3PositionEE14updateSetpointEf
FNDA:0,_ZN8ros2_uav5modes18AttitudeThrustModeIN7uav_cpp5modes4SpinEE14odometryUpdateEv
FNDA:0,_ZN8ros2_uav5modes18AttitudeThrustModeIN7uav_cpp5modes11Se3PositionEE14updateSetpointEf
FNDA:0,_ZN8ros2_uav5modes18AttitudeThrustModeIN7uav_cpp5modes11Se3PositionEEC2ERKN8px4_ros28ModeBase8SettingsERN6rclcpp4NodeE
FNDA:0,_ZN8ros2_uav5modes18AttitudeThrustModeIN7uav_cpp5modes11Se3PositionEE14odometryUpdateEv
FNDA:0,_ZN8ros2_uav5modes18AttitudeThrustModeIN7uav_cpp5modes4SpinEEC2ERKN8px4_ros28ModeBase8SettingsERN6rclcpp4NodeE
FNDA:0,_ZN8ros2_uav5modes18AttitudeThrustModeIN7uav_cpp5modes4SpinEE14updateSetpointEf
FNF:6
FNH:0
DA:26,0
DA:29,0
DA:31,0
DA:32,0
DA:33,0
DA:34,0
DA:35,0
DA:36,0
DA:37,0
DA:38,0
DA:39,0
DA:40,0
DA:41,0
DA:44,0
DA:46,0
DA:47,0
DA:48,0
DA:49,0
DA:50,0
DA:51,0
DA:52,0
DA:53,0
DA:54,0
DA:55,0
DA:58,0
DA:60,0
DA:61,0
DA:62,0
DA:66,0
DA:67,0
DA:68,0
DA:69,0
DA:70,0
DA:72,0
DA:73,0
DA:74,0
DA:75,0
DA:78,0
DA:79,0
DA:81,0
DA:82,0
DA:83,0
DA:84,0
LF:43
LH:0
end_of_record
TN:
SF:/home/runner/work/ros2_uav_px4/ros2_uav_px4/src/ros2_uav_px4/include/ros2_uav_px4/modes/position.hpp
FN:35,_ZN8ros2_uav5modes8PositionC2ERN6rclcpp4NodeE
FNDA:0,_ZN8ros2_uav5modes8PositionC2ERN6rclcpp4NodeE
FNF:1
FNH:0
DA:35,0
DA:36,0
DA:37,0
DA:39,0
LF:4
LH:0
end_of_record
TN:
SF:/home/runner/work/ros2_uav_px4/ros2_uav_px4/src/ros2_uav_px4/include/ros2_uav_px4/modes/spin.hpp
FN:35,_ZN8ros2_uav5modes4SpinC2ERN6rclcpp4NodeE
FNDA:0,_ZN8ros2_uav5modes4SpinC2ERN6rclcpp4NodeE
FNF:1
FNH:0
DA:35,0
DA:36,0
DA:37,0
LF:3
LH:0
end_of_record
TN:
SF:/home/runner/work/ros2_uav_px4/ros2_uav_px4/src/ros2_uav_px4/include/ros2_uav_px4/utils/tf2_eigen.hpp
FN:30,_ZN8uav_ros25utils16eigenNedToTf2NwuERKN5Eigen6MatrixIfLi3ELi1ELi0ELi3ELi1EEE
FN:41,_ZN8uav_ros25utils16tf2FwuToEigenNedERKN3tf27Vector3E
FN:52,_ZN8uav_ros25utils16eigenNedToTf2NwuERKN5Eigen10QuaternionIfLi0EEE
FN:65,_ZN8uav_ros25utils16tf2FwuToEigenNedERKN3tf210QuaternionE
FNDA:2,_ZN8uav_ros25utils16eigenNedToTf2NwuERKN5Eigen6MatrixIfLi3ELi1ELi0ELi3ELi1EEE
FNDA:2,_ZN8uav_ros25utils16tf2FwuToEigenNedERKN3tf27Vector3E
FNDA:1,_ZN8uav_ros25utils16tf2FwuToEigenNedERKN3tf210QuaternionE
FNDA:1,_ZN8uav_ros25utils16eigenNedToTf2NwuERKN5Eigen10QuaternionIfLi0EEE
FNF:4
FNH:4
BRDA:32,0,0,2
BRDA:32,0,1,0
BRDA:32,0,2,2
BRDA:32,0,3,0
BRDA:43,0,0,2
BRDA:43,0,1,0
BRDA:55,0,0,1
BRDA:55,0,1,0
BRDA:56,0,0,1
BRDA:56,0,1,0
BRDA:56,0,2,1
BRDA:56,0,3,0
BRDA:69,0,0,1
BRDA:69,0,1,0
BRF:14
BRH:7
DA:30,2
DA:32,2
DA:41,2
DA:43,4
DA:52,1
DA:55,1
DA:56,2
DA:65,1
DA:68,1
DA:69,3
LF:10
LH:10
end_of_record
TN:
SF:/home/runner/work/ros2_uav_px4/ros2_uav_px4/src/ros2_uav_px4/include/ros2_uav_px4/utils/uav_cpp_ros2_conversions.hpp
FN:27,_ZN8uav_ros25utils17convertToSetpointERKN19ros2_uav_interfaces3msg12PoseHeading_ISaIvEEE
FNDA:1,_ZN8uav_ros25utils17convertToSetpointERKN19ros2_uav_interfaces3msg12PoseHeading_ISaIvEEE
FNF:1
FNH:1
BRDA:29,0,0,1
BRDA:29,0,1,0
BRDA:30,0,0,1
BRDA:30,0,1,0
BRF:4
BRH:2
DA:27,1
DA:29,1
DA:30,1
DA:31,1
DA:32,1
DA:33,1
DA:34,2
DA:35,1
LF:8
LH:8
end_of_record
TN:
SF:/home/runner/work/ros2_uav_px4/ros2_uav_px4/src/ros2_uav_px4/src/modes_runner.cpp
FN:36,main
FN:61,_ZZ4mainENKUlSt10shared_ptrIN19ros2_uav_interfaces3msg12PoseHeading_ISaIvEEEEE_clES5_
FNDA:0,main
FNDA:0,_ZZ4mainENKUlSt10shared_ptrIN19ros2_uav_interfaces3msg12PoseHeading_ISaIvEEEEE_clES5_
FNF:2
FNH:0
DA:36,0
DA:38,0
DA:39,0
DA:40,0
DA:41,0
DA:44,0
DA:47,0
DA:48,0
DA:49,0
DA:53,0
DA:54,0
DA:55,0
DA:56,0
DA:57,0
DA:61,0
DA:62,0
DA:63,0
DA:67,0
DA:71,0
DA:72,0
DA:75,0
DA:78,0
DA:79,0
DA:82,0
DA:83,0
DA:85,0
DA:86,0
DA:89,0
DA:90,0
DA:93,0
DA:94,0
DA:95,0
DA:96,0
LF:33
LH:0
end_of_record
